; Function Attrs: mustprogress nofree norecurse nosync nounwind willreturn memory(read, inaccessiblemem: none) uwtable
define hidden noundef zeroext i1 @_ZN8GraphKit21has_exception_handlerEv(ptr nocapture noundef nonnull readonly align 8 dereferenceable(84) %0) local_unnamed_addr #3 align 2 {
  %2 = getelementptr inbounds i8, ptr %0, i64 40
  %3 = load ptr, ptr %2, align 8
  %4 = getelementptr inbounds i8, ptr %3, i64 56
  %.08 = load ptr, ptr %4, align 8
  %.not9.not = icmp eq ptr %.08, null
  br i1 %.not9.not, label %._crit_edge, label %.lr.ph

.lr.ph:                                           ; preds = %1, %11
  %.010 = phi ptr [ %.0, %11 ], [ %.08, %1 ]
  %5 = getelementptr inbounds i8, ptr %.010, i64 48
  %6 = load ptr, ptr %5, align 8
  %.not7 = icmp eq ptr %6, null
  br i1 %.not7, label %11, label %7

7:                                                ; preds = %.lr.ph
  %8 = getelementptr inbounds i8, ptr %6, i64 88
  %9 = load i32, ptr %8, align 8
  %10 = icmp sgt i32 %9, 0
  br i1 %10, label %._crit_edge, label %11

11:                                               ; preds = %.lr.ph, %7
  %.0 = load ptr, ptr %.010, align 8
  %.not.not = icmp eq ptr %.0, null
  br i1 %.not.not, label %._crit_edge, label %.lr.ph, !llvm.loop !9

._crit_edge:                                      ; preds = %7, %11, %1
  %.not.lcssa = phi i1 [ false, %1 ], [ false, %11 ], [ true, %7 ]
  ret i1 %.not.lcssa
}